; Function Attrs: mustprogress uwtable
define noundef zeroext i1 @_ZN3nix10pathExistsERKNSt7__cxx1112basic_stringIcSt11char_traitsIcESaIcEEE(ptr noundef nonnull align 8 dereferenceable(32) %0) local_unnamed_addr #2 personality ptr @__gxx_personality_v0 {
  %2 = alloca %struct.stat, align 8
  %3 = load ptr, ptr %0, align 8
  %4 = call i32 @lstat(ptr noundef %3, ptr noundef nonnull %2) #29
  %.not = icmp eq i32 %4, 0
  br i1 %.not, label %13, label %5

5:                                                ; preds = %1
  %6 = tail call ptr @__errno_location() #31
  %7 = load i32, ptr %6, align 4
  switch i32 %7, label %8 [
    i32 2, label %13
    i32 20, label %13
  ]

8:                                                ; preds = %5
  %9 = tail call ptr @__cxa_allocate_exception(i64 384) #29
  invoke void @_ZN3nix8SysErrorC2IJA22_cNSt7__cxx1112basic_stringIcSt11char_traitsIcESaIcEEEEEEDpRKT_(ptr noundef nonnull align 8 dereferenceable(380) %9, ptr noundef nonnull align 1 dereferenceable(22) @.str.8, ptr noundef nonnull align 8 dereferenceable(32) %0)
          to label %10 unwind label %11

10:                                               ; preds = %8
  tail call void @__cxa_throw(ptr nonnull %9, ptr nonnull @_ZTIN3nix8SysErrorE, ptr nonnull @_ZN3nix8SysErrorD2Ev) #32
  unreachable

11:                                               ; preds = %8
  %12 = landingpad { ptr, i32 }
          cleanup
  tail call void @__cxa_free_exception(ptr %9) #29
  resume { ptr, i32 } %12

13:                                               ; preds = %5, %5, %1
  ret i1 %.not
}